target datalayout = "e-m:e-p270:32:32-p271:32:32-p272:64:64-i64:64-i128:128-f80:128-n8:16:32:64-S128"
target triple = "x86_64-pc-linux-gnu"

%struct.curl_mimepart = type { ptr, ptr, i32, i32, ptr, ptr, ptr, ptr, ptr, ptr, ptr, ptr, ptr, ptr, ptr, i64, %struct.mime_state, ptr, %struct.mime_encoder_state, i64 }
%struct.mime_state = type { i32, ptr, i64 }
%struct.mime_encoder_state = type { i64, i64, i64, [256 x i8] }

@aschex = internal constant [17 x i8] c"0123456789ABCDEF\00", align 16
@.str.39 = private unnamed_addr constant [4 x i8] c"=\0D\0A\00", align 1

; Function Attrs: nounwind uwtable
define internal i32 @qp_lookahead_eol(ptr noundef %0, i32 noundef %1, i64 noundef %2) #0 {
  %4 = alloca i32, align 4
  %5 = alloca ptr, align 8
  %6 = alloca i32, align 4
  %7 = alloca i64, align 8
  store ptr %0, ptr %5, align 8, !tbaa !107
  store i32 %1, ptr %6, align 4, !tbaa !45
  store i64 %2, ptr %7, align 8, !tbaa !50
  %8 = load ptr, ptr %5, align 8, !tbaa !107
  %9 = getelementptr inbounds nuw %struct.mime_encoder_state, ptr %8, i32 0, i32 1
  %10 = load i64, ptr %9, align 8, !tbaa !110
  %11 = load i64, ptr %7, align 8, !tbaa !50
  %12 = add i64 %11, %10
  store i64 %12, ptr %7, align 8, !tbaa !50
  %13 = load i64, ptr %7, align 8, !tbaa !50
  %14 = load ptr, ptr %5, align 8, !tbaa !107
  %15 = getelementptr inbounds nuw %struct.mime_encoder_state, ptr %14, i32 0, i32 2
  %16 = load i64, ptr %15, align 8, !tbaa !111
  %17 = icmp uge i64 %13, %16
  br i1 %17, label %18, label %22

18:                                               ; preds = %3
  %19 = load i32, ptr %6, align 4, !tbaa !45
  %20 = icmp ne i32 %19, 0
  br i1 %20, label %21, label %22

21:                                               ; preds = %18
  store i32 1, ptr %4, align 4
  br label %62

22:                                               ; preds = %18, %3
  %23 = load i64, ptr %7, align 8, !tbaa !50
  %24 = add i64 %23, 2
  %25 = load ptr, ptr %5, align 8, !tbaa !107
  %26 = getelementptr inbounds nuw %struct.mime_encoder_state, ptr %25, i32 0, i32 2
  %27 = load i64, ptr %26, align 8, !tbaa !111
  %28 = icmp ugt i64 %24, %27
  br i1 %28, label %29, label %33

29:                                               ; preds = %22
  %30 = load i32, ptr %6, align 4, !tbaa !45
  %31 = icmp ne i32 %30, 0
  %32 = select i1 %31, i32 0, i32 -1
  store i32 %32, ptr %4, align 4
  br label %62

33:                                               ; preds = %22
  %34 = load ptr, ptr %5, align 8, !tbaa !107
  %35 = getelementptr inbounds nuw %struct.mime_encoder_state, ptr %34, i32 0, i32 3
  %36 = load i64, ptr %7, align 8, !tbaa !50
  %37 = getelementptr inbounds nuw [256 x i8], ptr %35, i64 0, i64 %36
  %38 = load i8, ptr %37, align 1, !tbaa !88
  %39 = sext i8 %38 to i32
  %40 = and i32 %39, 255
  %41 = sext i32 %40 to i64
  %42 = getelementptr inbounds [256 x i8], ptr @qp_class, i64 0, i64 %41
  %43 = load i8, ptr %42, align 1, !tbaa !88
  %44 = zext i8 %43 to i32
  %45 = icmp eq i32 %44, 3
  br i1 %45, label %46, label %61

46:                                               ; preds = %33
  %47 = load ptr, ptr %5, align 8, !tbaa !107
  %48 = getelementptr inbounds nuw %struct.mime_encoder_state, ptr %47, i32 0, i32 3
  %49 = load i64, ptr %7, align 8, !tbaa !50
  %50 = add i64 %49, 1
  %51 = getelementptr inbounds nuw [256 x i8], ptr %48, i64 0, i64 %50
  %52 = load i8, ptr %51, align 1, !tbaa !88
  %53 = sext i8 %52 to i32
  %54 = and i32 %53, 255
  %55 = sext i32 %54 to i64
  %56 = getelementptr inbounds [256 x i8], ptr @qp_class, i64 0, i64 %55
  %57 = load i8, ptr %56, align 1, !tbaa !88
  %58 = zext i8 %57 to i32
  %59 = icmp eq i32 %58, 4
  br i1 %59, label %60, label %61

60:                                               ; preds = %46
  store i32 1, ptr %4, align 4
  br label %62

61:                                               ; preds = %46, %33
  store i32 0, ptr %4, align 4
  br label %62

62:                                               ; preds = %61, %60, %29, %21
  %63 = load i32, ptr %4, align 4
  ret i32 %63
}

; Function Attrs: nounwind uwtable
define internal i64 @encoder_qp_read(ptr noundef %0, i64 noundef %1, i1 noundef zeroext %2, ptr noundef %3) #0 {
  %5 = alloca i64, align 8
  %6 = alloca ptr, align 8
  %7 = alloca i64, align 8
  %8 = alloca i8, align 1
  %9 = alloca ptr, align 8
  %10 = alloca ptr, align 8
  %11 = alloca ptr, align 8
  %12 = alloca i64, align 8
  %13 = alloca i32, align 4
  %14 = alloca [4 x i8], align 1
  %15 = alloca i64, align 8
  %16 = alloca i64, align 8
  %17 = alloca i32, align 4
  %18 = alloca i32, align 4
  store ptr %0, ptr %6, align 8, !tbaa !49
  store i64 %1, ptr %7, align 8, !tbaa !50
  %19 = zext i1 %2 to i8
  store i8 %19, ptr %8, align 1, !tbaa !70
  store ptr %3, ptr %9, align 8, !tbaa !4
  call void @llvm.lifetime.start.p0(i64 8, ptr %10) #8
  %20 = load ptr, ptr %9, align 8, !tbaa !4
  %21 = getelementptr inbounds nuw %struct.curl_mimepart, ptr %20, i32 0, i32 18
  store ptr %21, ptr %10, align 8, !tbaa !107
  call void @llvm.lifetime.start.p0(i64 8, ptr %11) #8
  %22 = load ptr, ptr %6, align 8, !tbaa !49
  store ptr %22, ptr %11, align 8, !tbaa !49
  call void @llvm.lifetime.start.p0(i64 8, ptr %12) #8
  store i64 0, ptr %12, align 8, !tbaa !50
  call void @llvm.lifetime.start.p0(i64 4, ptr %13) #8
  call void @llvm.lifetime.start.p0(i64 4, ptr %14) #8
  br label %23

23:                                               ; preds = %183, %4
  %24 = load ptr, ptr %10, align 8, !tbaa !107
  %25 = getelementptr inbounds nuw %struct.mime_encoder_state, ptr %24, i32 0, i32 1
  %26 = load i64, ptr %25, align 8, !tbaa !110
  %27 = load ptr, ptr %10, align 8, !tbaa !107
  %28 = getelementptr inbounds nuw %struct.mime_encoder_state, ptr %27, i32 0, i32 2
  %29 = load i64, ptr %28, align 8, !tbaa !111
  %30 = icmp ult i64 %26, %29
  br i1 %30, label %31, label %184

31:                                               ; preds = %23
  call void @llvm.lifetime.start.p0(i64 8, ptr %15) #8
  store i64 1, ptr %15, align 8, !tbaa !50
  call void @llvm.lifetime.start.p0(i64 8, ptr %16) #8
  store i64 1, ptr %16, align 8, !tbaa !50
  call void @llvm.lifetime.start.p0(i64 4, ptr %17) #8
  %32 = load ptr, ptr %10, align 8, !tbaa !107
  %33 = getelementptr inbounds nuw %struct.mime_encoder_state, ptr %32, i32 0, i32 3
  %34 = load ptr, ptr %10, align 8, !tbaa !107
  %35 = getelementptr inbounds nuw %struct.mime_encoder_state, ptr %34, i32 0, i32 1
  %36 = load i64, ptr %35, align 8, !tbaa !110
  %37 = getelementptr inbounds nuw [256 x i8], ptr %33, i64 0, i64 %36
  %38 = load i8, ptr %37, align 1, !tbaa !88
  %39 = sext i8 %38 to i32
  store i32 %39, ptr %17, align 4, !tbaa !45
  %40 = load i32, ptr %17, align 4, !tbaa !45
  %41 = trunc i32 %40 to i8
  %42 = getelementptr inbounds [4 x i8], ptr %14, i64 0, i64 0
  store i8 %41, ptr %42, align 1, !tbaa !88
  %43 = load i32, ptr %17, align 4, !tbaa !45
  %44 = ashr i32 %43, 4
  %45 = and i32 %44, 15
  %46 = sext i32 %45 to i64
  %47 = getelementptr inbounds [17 x i8], ptr @aschex, i64 0, i64 %46
  %48 = load i8, ptr %47, align 1, !tbaa !88
  %49 = getelementptr inbounds [4 x i8], ptr %14, i64 0, i64 1
  store i8 %48, ptr %49, align 1, !tbaa !88
  %50 = load i32, ptr %17, align 4, !tbaa !45
  %51 = and i32 %50, 15
  %52 = sext i32 %51 to i64
  %53 = getelementptr inbounds [17 x i8], ptr @aschex, i64 0, i64 %52
  %54 = load i8, ptr %53, align 1, !tbaa !88
  %55 = getelementptr inbounds [4 x i8], ptr %14, i64 0, i64 2
  store i8 %54, ptr %55, align 1, !tbaa !88
  %56 = load ptr, ptr %10, align 8, !tbaa !107
  %57 = getelementptr inbounds nuw %struct.mime_encoder_state, ptr %56, i32 0, i32 3
  %58 = load ptr, ptr %10, align 8, !tbaa !107
  %59 = getelementptr inbounds nuw %struct.mime_encoder_state, ptr %58, i32 0, i32 1
  %60 = load i64, ptr %59, align 8, !tbaa !110
  %61 = getelementptr inbounds nuw [256 x i8], ptr %57, i64 0, i64 %60
  %62 = load i8, ptr %61, align 1, !tbaa !88
  %63 = sext i8 %62 to i32
  %64 = and i32 %63, 255
  %65 = sext i32 %64 to i64
  %66 = getelementptr inbounds [256 x i8], ptr @qp_class, i64 0, i64 %65
  %67 = load i8, ptr %66, align 1, !tbaa !88
  %68 = zext i8 %67 to i32
  switch i32 %68, label %95 [
    i32 1, label %97
    i32 2, label %69
    i32 3, label %80
  ]

69:                                               ; preds = %31
  %70 = load ptr, ptr %10, align 8, !tbaa !107
  %71 = load i8, ptr %8, align 1, !tbaa !70, !range !114, !noundef !115
  %72 = trunc i8 %71 to i1
  %73 = zext i1 %72 to i32
  %74 = call i32 @qp_lookahead_eol(ptr noundef %70, i32 noundef %73, i64 noundef 1)
  switch i32 %74, label %77 [
    i32 -1, label %75
    i32 0, label %79
  ]

75:                                               ; preds = %69
  %76 = load i64, ptr %12, align 8, !tbaa !50
  store i64 %76, ptr %5, align 8
  store i32 1, ptr %18, align 4
  br label %181

77:                                               ; preds = %69
  %78 = getelementptr inbounds [4 x i8], ptr %14, i64 0, i64 0
  store i8 61, ptr %78, align 1, !tbaa !88
  store i64 3, ptr %15, align 8, !tbaa !50
  br label %79

79:                                               ; preds = %77, %69
  br label %97

80:                                               ; preds = %31
  %81 = load ptr, ptr %10, align 8, !tbaa !107
  %82 = load i8, ptr %8, align 1, !tbaa !70, !range !114, !noundef !115
  %83 = trunc i8 %82 to i1
  %84 = zext i1 %83 to i32
  %85 = call i32 @qp_lookahead_eol(ptr noundef %81, i32 noundef %84, i64 noundef 0)
  switch i32 %85, label %92 [
    i32 -1, label %86
    i32 1, label %88
  ]

86:                                               ; preds = %80
  %87 = load i64, ptr %12, align 8, !tbaa !50
  store i64 %87, ptr %5, align 8
  store i32 1, ptr %18, align 4
  br label %181

88:                                               ; preds = %80
  %89 = load i64, ptr %15, align 8, !tbaa !50
  %90 = add i64 %89, 1
  store i64 %90, ptr %15, align 8, !tbaa !50
  %91 = getelementptr inbounds nuw [4 x i8], ptr %14, i64 0, i64 %89
  store i8 10, ptr %91, align 1, !tbaa !88
  store i64 2, ptr %16, align 8, !tbaa !50
  br label %94

92:                                               ; preds = %80
  %93 = getelementptr inbounds [4 x i8], ptr %14, i64 0, i64 0
  store i8 61, ptr %93, align 1, !tbaa !88
  store i64 3, ptr %15, align 8, !tbaa !50
  br label %94

94:                                               ; preds = %92, %88
  br label %97

95:                                               ; preds = %31
  %96 = getelementptr inbounds [4 x i8], ptr %14, i64 0, i64 0
  store i8 61, ptr %96, align 1, !tbaa !88
  store i64 3, ptr %15, align 8, !tbaa !50
  br label %97

97:                                               ; preds = %95, %94, %79, %31
  %98 = load i64, ptr %15, align 8, !tbaa !50
  %99 = sub i64 %98, 1
  %100 = getelementptr inbounds nuw [4 x i8], ptr %14, i64 0, i64 %99
  %101 = load i8, ptr %100, align 1, !tbaa !88
  %102 = sext i8 %101 to i32
  %103 = icmp ne i32 %102, 10
  br i1 %103, label %104, label %139

104:                                              ; preds = %97
  %105 = load ptr, ptr %10, align 8, !tbaa !107
  %106 = getelementptr inbounds nuw %struct.mime_encoder_state, ptr %105, i32 0, i32 0
  %107 = load i64, ptr %106, align 8, !tbaa !109
  %108 = load i64, ptr %15, align 8, !tbaa !50
  %109 = add i64 %107, %108
  %110 = icmp ugt i64 %109, 76
  %111 = zext i1 %110 to i32
  store i32 %111, ptr %13, align 4, !tbaa !45
  %112 = load i32, ptr %13, align 4, !tbaa !45
  %113 = icmp ne i32 %112, 0
  br i1 %113, label %132, label %114

114:                                              ; preds = %104
  %115 = load ptr, ptr %10, align 8, !tbaa !107
  %116 = getelementptr inbounds nuw %struct.mime_encoder_state, ptr %115, i32 0, i32 0
  %117 = load i64, ptr %116, align 8, !tbaa !109
  %118 = load i64, ptr %15, align 8, !tbaa !50
  %119 = add i64 %117, %118
  %120 = icmp eq i64 %119, 76
  br i1 %120, label %121, label %132

121:                                              ; preds = %114
  %122 = load ptr, ptr %10, align 8, !tbaa !107
  %123 = load i8, ptr %8, align 1, !tbaa !70, !range !114, !noundef !115
  %124 = trunc i8 %123 to i1
  %125 = zext i1 %124 to i32
  %126 = load i64, ptr %16, align 8, !tbaa !50
  %127 = call i32 @qp_lookahead_eol(ptr noundef %122, i32 noundef %125, i64 noundef %126)
  switch i32 %127, label %131 [
    i32 -1, label %128
    i32 0, label %130
  ]

128:                                              ; preds = %121
  %129 = load i64, ptr %12, align 8, !tbaa !50
  store i64 %129, ptr %5, align 8
  store i32 1, ptr %18, align 4
  br label %181

130:                                              ; preds = %121
  store i32 1, ptr %13, align 4, !tbaa !45
  br label %131

131:                                              ; preds = %121, %130
  br label %132

132:                                              ; preds = %131, %114, %104
  %133 = load i32, ptr %13, align 4, !tbaa !45
  %134 = icmp ne i32 %133, 0
  br i1 %134, label %135, label %138

135:                                              ; preds = %132
  %136 = getelementptr inbounds [4 x i8], ptr %14, i64 0, i64 0
  %137 = call ptr @strcpy(ptr noundef %136, ptr noundef @.str.39) #8
  store i64 3, ptr %15, align 8, !tbaa !50
  store i64 0, ptr %16, align 8, !tbaa !50
  br label %138

138:                                              ; preds = %135, %132
  br label %139

139:                                              ; preds = %138, %97
  %140 = load i64, ptr %15, align 8, !tbaa !50
  %141 = load i64, ptr %7, align 8, !tbaa !50
  %142 = icmp ugt i64 %140, %141
  br i1 %142, label %143, label %148

143:                                              ; preds = %139
  %144 = load i64, ptr %12, align 8, !tbaa !50
  %145 = icmp ne i64 %144, 0
  br i1 %145, label %147, label %146

146:                                              ; preds = %143
  store i64 -2, ptr %5, align 8
  store i32 1, ptr %18, align 4
  br label %181

147:                                              ; preds = %143
  store i32 3, ptr %18, align 4
  br label %181

148:                                              ; preds = %139
  %149 = load ptr, ptr %11, align 8, !tbaa !49
  %150 = getelementptr inbounds [4 x i8], ptr %14, i64 0, i64 0
  %151 = load i64, ptr %15, align 8, !tbaa !50
  call void @llvm.memcpy.p0.p0.i64(ptr align 1 %149, ptr align 1 %150, i64 %151, i1 false)
  %152 = load i64, ptr %15, align 8, !tbaa !50
  %153 = load i64, ptr %12, align 8, !tbaa !50
  %154 = add i64 %153, %152
  store i64 %154, ptr %12, align 8, !tbaa !50
  %155 = load i64, ptr %15, align 8, !tbaa !50
  %156 = load ptr, ptr %11, align 8, !tbaa !49
  %157 = getelementptr inbounds nuw i8, ptr %156, i64 %155
  store ptr %157, ptr %11, align 8, !tbaa !49
  %158 = load i64, ptr %15, align 8, !tbaa !50
  %159 = load i64, ptr %7, align 8, !tbaa !50
  %160 = sub i64 %159, %158
  store i64 %160, ptr %7, align 8, !tbaa !50
  %161 = load i64, ptr %15, align 8, !tbaa !50
  %162 = load ptr, ptr %10, align 8, !tbaa !107
  %163 = getelementptr inbounds nuw %struct.mime_encoder_state, ptr %162, i32 0, i32 0
  %164 = load i64, ptr %163, align 8, !tbaa !109
  %165 = add i64 %164, %161
  store i64 %165, ptr %163, align 8, !tbaa !109
  %166 = load i64, ptr %15, align 8, !tbaa !50
  %167 = sub i64 %166, 1
  %168 = getelementptr inbounds nuw [4 x i8], ptr %14, i64 0, i64 %167
  %169 = load i8, ptr %168, align 1, !tbaa !88
  %170 = sext i8 %169 to i32
  %171 = icmp eq i32 %170, 10
  br i1 %171, label %172, label %175

172:                                              ; preds = %148
  %173 = load ptr, ptr %10, align 8, !tbaa !107
  %174 = getelementptr inbounds nuw %struct.mime_encoder_state, ptr %173, i32 0, i32 0
  store i64 0, ptr %174, align 8, !tbaa !109
  br label %175

175:                                              ; preds = %172, %148
  %176 = load i64, ptr %16, align 8, !tbaa !50
  %177 = load ptr, ptr %10, align 8, !tbaa !107
  %178 = getelementptr inbounds nuw %struct.mime_encoder_state, ptr %177, i32 0, i32 1
  %179 = load i64, ptr %178, align 8, !tbaa !110
  %180 = add i64 %179, %176
  store i64 %180, ptr %178, align 8, !tbaa !110
  store i32 0, ptr %18, align 4
  br label %181

181:                                              ; preds = %175, %147, %146, %128, %86, %75
  call void @llvm.lifetime.end.p0(i64 4, ptr %17) #8
  call void @llvm.lifetime.end.p0(i64 8, ptr %16) #8
  call void @llvm.lifetime.end.p0(i64 8, ptr %15) #8
  %182 = load i32, ptr %18, align 4
  switch i32 %182, label %186 [
    i32 0, label %183
    i32 3, label %184
  ]

183:                                              ; preds = %181
  br label %23, !llvm.loop !116

184:                                              ; preds = %181, %23
  %185 = load i64, ptr %12, align 8, !tbaa !50
  store i64 %185, ptr %5, align 8
  store i32 1, ptr %18, align 4
  br label %186

186:                                              ; preds = %184, %181
  call void @llvm.lifetime.end.p0(i64 4, ptr %14) #8
  call void @llvm.lifetime.end.p0(i64 4, ptr %13) #8
  call void @llvm.lifetime.end.p0(i64 8, ptr %12) #8
  call void @llvm.lifetime.end.p0(i64 8, ptr %11) #8
  call void @llvm.lifetime.end.p0(i64 8, ptr %10) #8
  %187 = load i64, ptr %5, align 8
  ret i64 %187
}