; Function Attrs: nofree norecurse nosync nounwind memory(argmem: readwrite) uwtable
define internal i64 @encoder_qp_read(ptr noundef writeonly captures(none) %0, i64 noundef %1, i1 noundef zeroext %2, ptr noundef captures(none) %3) #14 {
  %5 = alloca [4 x i8], align 4
  %6 = getelementptr inbounds nuw i8, ptr %3, i64 152
  call void @llvm.lifetime.start.p0(i64 4, ptr nonnull %5) #18
  %7 = getelementptr inbounds nuw i8, ptr %3, i64 160
  %8 = getelementptr inbounds nuw i8, ptr %3, i64 168
  %9 = load i64, ptr %7, align 8, !tbaa !69
  %10 = load i64, ptr %8, align 8, !tbaa !70
  %11 = icmp ult i64 %9, %10
  br i1 %11, label %.lr.ph, label %.thread83

.lr.ph:                                           ; preds = %4
  %12 = getelementptr inbounds nuw i8, ptr %3, i64 176
  %13 = getelementptr inbounds nuw i8, ptr %5, i64 1
  %14 = getelementptr inbounds nuw i8, ptr %5, i64 2
  br label %15

15:                                               ; preds = %.lr.ph, %99
  %16 = phi i64 [ %10, %.lr.ph ], [ %111, %99 ]
  %17 = phi i64 [ %9, %.lr.ph ], [ %110, %99 ]
  %.054102 = phi i64 [ 0, %.lr.ph ], [ %100, %99 ]
  %.057101 = phi ptr [ %0, %.lr.ph ], [ %101, %99 ]
  %.059100 = phi i64 [ %1, %.lr.ph ], [ %102, %99 ]
  %18 = getelementptr inbounds nuw [256 x i8], ptr %12, i64 0, i64 %17
  %19 = load i8, ptr %18, align 1, !tbaa !67
  %20 = zext i8 %19 to i32
  store i8 %19, ptr %5, align 4, !tbaa !67
  %21 = lshr i32 %20, 4
  %22 = zext nneg i32 %21 to i64
  %23 = getelementptr inbounds nuw [17 x i8], ptr @aschex, i64 0, i64 %22
  %24 = load i8, ptr %23, align 1, !tbaa !67
  store i8 %24, ptr %13, align 1, !tbaa !67
  %25 = and i32 %20, 15
  %26 = zext nneg i32 %25 to i64
  %27 = getelementptr inbounds nuw [17 x i8], ptr @aschex, i64 0, i64 %26
  %28 = load i8, ptr %27, align 1, !tbaa !67
  store i8 %28, ptr %14, align 2, !tbaa !67
  %29 = zext i8 %19 to i64
  %30 = getelementptr inbounds nuw [256 x i8], ptr @qp_class, i64 0, i64 %29
  %31 = load i8, ptr %30, align 1, !tbaa !67
  switch i8 %31, label %66 [
    i8 1, label %qp_lookahead_eol.exit.thread74
    i8 2, label %32
    i8 3, label %53
  ]

32:                                               ; preds = %15
  %33 = add nuw i64 %17, 1
  %34 = icmp uge i64 %33, %16
  %or.cond.i = and i1 %2, %34
  br i1 %or.cond.i, label %qp_lookahead_eol.exit.thread, label %35

35:                                               ; preds = %32
  %36 = add i64 %17, 3
  %37 = icmp ugt i64 %36, %16
  br i1 %37, label %qp_lookahead_eol.exit, label %38

38:                                               ; preds = %35
  %39 = getelementptr inbounds nuw [256 x i8], ptr %12, i64 0, i64 %33
  %40 = load i8, ptr %39, align 1, !tbaa !67
  %41 = zext i8 %40 to i64
  %42 = getelementptr inbounds nuw [256 x i8], ptr @qp_class, i64 0, i64 %41
  %43 = load i8, ptr %42, align 1, !tbaa !67
  %44 = icmp eq i8 %43, 3
  br i1 %44, label %45, label %qp_lookahead_eol.exit.thread74

45:                                               ; preds = %38
  %46 = add i64 %17, 2
  %47 = getelementptr inbounds nuw [256 x i8], ptr %12, i64 0, i64 %46
  %48 = load i8, ptr %47, align 1, !tbaa !67
  %49 = zext i8 %48 to i64
  %50 = getelementptr inbounds nuw [256 x i8], ptr @qp_class, i64 0, i64 %49
  %51 = load i8, ptr %50, align 1, !tbaa !67
  %52 = icmp eq i8 %51, 4
  br i1 %52, label %qp_lookahead_eol.exit.thread, label %qp_lookahead_eol.exit.thread74

qp_lookahead_eol.exit:                            ; preds = %35
  br i1 %2, label %qp_lookahead_eol.exit.thread74, label %.thread83

qp_lookahead_eol.exit.thread:                     ; preds = %45, %32
  store i8 61, ptr %5, align 4, !tbaa !67
  br label %qp_lookahead_eol.exit.thread74

53:                                               ; preds = %15
  %54 = icmp uge i64 %17, %16
  %or.cond.i65 = and i1 %2, %54
  br i1 %or.cond.i65, label %qp_lookahead_eol.exit68.thread, label %55

55:                                               ; preds = %53
  %56 = add i64 %17, 2
  %57 = icmp ugt i64 %56, %16
  br i1 %57, label %qp_lookahead_eol.exit68, label %58

58:                                               ; preds = %55
  %59 = add nuw i64 %17, 1
  %60 = getelementptr inbounds nuw [256 x i8], ptr %12, i64 0, i64 %59
  %61 = load i8, ptr %60, align 1, !tbaa !67
  %62 = zext i8 %61 to i64
  %63 = getelementptr inbounds nuw [256 x i8], ptr @qp_class, i64 0, i64 %62
  %64 = load i8, ptr %63, align 1, !tbaa !67
  %65 = icmp eq i8 %64, 4
  br i1 %65, label %qp_lookahead_eol.exit68.thread, label %qp_lookahead_eol.exit68.thread77

qp_lookahead_eol.exit68:                          ; preds = %55
  br i1 %2, label %qp_lookahead_eol.exit68.thread77, label %.thread83

qp_lookahead_eol.exit68.thread:                   ; preds = %58, %53
  store i8 10, ptr %13, align 1, !tbaa !67
  br label %qp_lookahead_eol.exit.thread74

qp_lookahead_eol.exit68.thread77:                 ; preds = %qp_lookahead_eol.exit68, %58
  store i8 61, ptr %5, align 4, !tbaa !67
  br label %qp_lookahead_eol.exit.thread74

66:                                               ; preds = %15
  store i8 61, ptr %5, align 4, !tbaa !67
  br label %qp_lookahead_eol.exit.thread74

qp_lookahead_eol.exit.thread74:                   ; preds = %qp_lookahead_eol.exit, %45, %38, %qp_lookahead_eol.exit68.thread, %qp_lookahead_eol.exit68.thread77, %qp_lookahead_eol.exit.thread, %66, %15
  %.051 = phi i64 [ 3, %66 ], [ 3, %qp_lookahead_eol.exit68.thread77 ], [ 2, %qp_lookahead_eol.exit68.thread ], [ 3, %qp_lookahead_eol.exit.thread ], [ 1, %qp_lookahead_eol.exit ], [ 1, %15 ], [ 1, %38 ], [ 1, %45 ]
  %.049 = phi i64 [ 1, %66 ], [ 1, %qp_lookahead_eol.exit68.thread77 ], [ 2, %qp_lookahead_eol.exit68.thread ], [ 1, %qp_lookahead_eol.exit.thread ], [ 1, %qp_lookahead_eol.exit ], [ 1, %15 ], [ 1, %38 ], [ 1, %45 ]
  %67 = add nsw i64 %.051, -1
  %68 = getelementptr inbounds nuw [4 x i8], ptr %5, i64 0, i64 %67
  %69 = load i8, ptr %68, align 1, !tbaa !67
  %.not = icmp eq i8 %69, 10
  br i1 %.not, label %.thread, label %70

70:                                               ; preds = %qp_lookahead_eol.exit.thread74
  %71 = load i64, ptr %6, align 8, !tbaa !99
  %72 = add i64 %71, %.051
  %73 = icmp eq i64 %72, 76
  br i1 %73, label %74, label %95

74:                                               ; preds = %70
  %75 = add i64 %17, %.049
  %76 = icmp uge i64 %75, %16
  %or.cond.i69 = and i1 %2, %76
  br i1 %or.cond.i69, label %.thread, label %77

77:                                               ; preds = %74
  %78 = add i64 %75, 2
  %79 = icmp ugt i64 %78, %16
  br i1 %79, label %qp_lookahead_eol.exit72, label %80

80:                                               ; preds = %77
  %81 = getelementptr inbounds nuw [256 x i8], ptr %12, i64 0, i64 %75
  %82 = load i8, ptr %81, align 1, !tbaa !67
  %83 = zext i8 %82 to i64
  %84 = getelementptr inbounds nuw [256 x i8], ptr @qp_class, i64 0, i64 %83
  %85 = load i8, ptr %84, align 1, !tbaa !67
  %86 = icmp eq i8 %85, 3
  br i1 %86, label %87, label %.critedge

87:                                               ; preds = %80
  %88 = add i64 %75, 1
  %89 = getelementptr inbounds nuw [256 x i8], ptr %12, i64 0, i64 %88
  %90 = load i8, ptr %89, align 1, !tbaa !67
  %91 = zext i8 %90 to i64
  %92 = getelementptr inbounds nuw [256 x i8], ptr @qp_class, i64 0, i64 %91
  %93 = load i8, ptr %92, align 1, !tbaa !67
  %94 = icmp eq i8 %93, 4
  br i1 %94, label %.thread, label %.critedge

qp_lookahead_eol.exit72:                          ; preds = %77
  br i1 %2, label %.critedge, label %.thread83

95:                                               ; preds = %70
  %96 = icmp ugt i64 %72, 76
  br i1 %96, label %.critedge, label %.thread

.critedge:                                        ; preds = %qp_lookahead_eol.exit72, %87, %80, %95
  store i32 658749, ptr %5, align 4
  br label %.thread

.thread:                                          ; preds = %87, %74, %95, %.critedge, %qp_lookahead_eol.exit.thread74
  %.152 = phi i64 [ 3, %.critedge ], [ %.051, %95 ], [ %.051, %qp_lookahead_eol.exit.thread74 ], [ %.051, %74 ], [ %.051, %87 ]
  %.150 = phi i64 [ 0, %.critedge ], [ %.049, %95 ], [ %.049, %qp_lookahead_eol.exit.thread74 ], [ %.049, %74 ], [ %.049, %87 ]
  %97 = icmp ugt i64 %.152, %.059100
  br i1 %97, label %98, label %99

98:                                               ; preds = %.thread
  %.not63 = icmp eq i64 %.054102, 0
  %spec.select = select i1 %.not63, i64 -2, i64 %.054102
  br label %.thread83

99:                                               ; preds = %.thread
  call void @llvm.memcpy.p0.p0.i64(ptr noundef nonnull align 1 dereferenceable(1) %.057101, ptr noundef nonnull align 4 dereferenceable(1) %5, i64 %.152, i1 false)
  %100 = add i64 %.152, %.054102
  %101 = getelementptr inbounds nuw i8, ptr %.057101, i64 %.152
  %102 = sub nuw i64 %.059100, %.152
  %103 = load i64, ptr %6, align 8, !tbaa !99
  %104 = add i64 %103, %.152
  %105 = add nsw i64 %.152, -1
  %106 = getelementptr inbounds nuw [4 x i8], ptr %5, i64 0, i64 %105
  %107 = load i8, ptr %106, align 1, !tbaa !67
  %108 = icmp eq i8 %107, 10
  %spec.store.select = select i1 %108, i64 0, i64 %104
  store i64 %spec.store.select, ptr %6, align 8
  %109 = load i64, ptr %7, align 8, !tbaa !69
  %110 = add i64 %109, %.150
  store i64 %110, ptr %7, align 8, !tbaa !69
  %111 = load i64, ptr %8, align 8, !tbaa !70
  %112 = icmp ult i64 %110, %111
  br i1 %112, label %15, label %.thread83

.thread83:                                        ; preds = %99, %qp_lookahead_eol.exit68, %qp_lookahead_eol.exit, %qp_lookahead_eol.exit72, %4, %98
  %.2 = phi i64 [ %spec.select, %98 ], [ 0, %4 ], [ %100, %99 ], [ %.054102, %qp_lookahead_eol.exit68 ], [ %.054102, %qp_lookahead_eol.exit ], [ %.054102, %qp_lookahead_eol.exit72 ]
  call void @llvm.lifetime.end.p0(i64 4, ptr nonnull %5) #18
  ret i64 %.2
}